target datalayout = "e-m:e-p270:32:32-p271:32:32-p272:64:64-i64:64-i128:128-f80:128-n8:16:32:64-S128"
target triple = "x86_64-pc-linux-gnu"

%"class.std::__shared_count" = type { ptr }
%"class.OpenImageIO::v3_1_0::ColorConfig" = type { %"class.std::unique_ptr" }
%"class.std::unique_ptr" = type { %"struct.std::__uniq_ptr_data" }
%"struct.std::__uniq_ptr_data" = type { %"class.std::__uniq_ptr_impl" }
%"class.std::__uniq_ptr_impl" = type { %"class.std::tuple" }
%"class.std::tuple" = type { %"struct.std::_Tuple_impl" }
%"struct.std::_Tuple_impl" = type { %"struct.std::_Head_base.1" }
%"struct.std::_Head_base.1" = type { ptr }
%"class.std::__cxx11::basic_string" = type { %"struct.std::__cxx11::basic_string<char>::_Alloc_hider", i64, %union.anon.5 }
%"struct.std::__cxx11::basic_string<char>::_Alloc_hider" = type { ptr }
%union.anon.5 = type { i64, [8 x i8] }
%"class.OpenImageIO::v3_1_0::ColorConfig::Impl" = type <{ %"class.std::shared_ptr", %"class.std::shared_ptr", %"class.std::vector", %"class.std::__cxx11::basic_string", %"class.std::__cxx11::basic_string", %"class.std::__cxx11::basic_string", %"class.std::__cxx11::basic_string", %"class.std::__cxx11::basic_string", %"class.OpenImageIO::v3_1_0::spin_rw_mutex", [4 x i8], %"class.std::__cxx11::basic_string", %"class.tsl::robin_map", %"struct.std::atomic", %"struct.std::atomic", %"class.std::__cxx11::basic_string", ptr, i8, [7 x i8] }>
%"class.std::shared_ptr" = type { %"class.std::__shared_ptr" }
%"class.std::__shared_ptr" = type { ptr, %"class.std::__shared_count" }
%"class.std::vector" = type { %"struct.std::_Vector_base" }
%"struct.std::_Vector_base" = type { %"struct.std::_Vector_base<OpenImageIO::v3_1_0::CSInfo, std::allocator<OpenImageIO::v3_1_0::CSInfo>>::_Vector_impl" }
%"struct.std::_Vector_base<OpenImageIO::v3_1_0::CSInfo, std::allocator<OpenImageIO::v3_1_0::CSInfo>>::_Vector_impl" = type { %"struct.std::_Vector_base<OpenImageIO::v3_1_0::CSInfo, std::allocator<OpenImageIO::v3_1_0::CSInfo>>::_Vector_impl_data" }
%"struct.std::_Vector_base<OpenImageIO::v3_1_0::CSInfo, std::allocator<OpenImageIO::v3_1_0::CSInfo>>::_Vector_impl_data" = type { ptr, ptr, ptr }
%"class.OpenImageIO::v3_1_0::spin_rw_mutex" = type { %"struct.std::atomic" }
%"class.tsl::robin_map" = type { %"class.tsl::detail_robin_hash::robin_hash" }
%"class.tsl::detail_robin_hash::robin_hash" = type <{ %"class.tsl::rh::power_of_two_growth_policy", %"class.std::vector.6", ptr, i64, i64, i64, float, float, i8, i8, [6 x i8] }>
%"class.tsl::rh::power_of_two_growth_policy" = type { i64 }
%"class.std::vector.6" = type { %"struct.std::_Vector_base.7" }
%"struct.std::_Vector_base.7" = type { %"struct.std::_Vector_base<tsl::detail_robin_hash::bucket_entry<std::pair<OpenImageIO::v3_1_0::ColorProcCacheKey, std::shared_ptr<OpenImageIO::v3_1_0::ColorProcessor>>, true>, std::allocator<tsl::detail_robin_hash::bucket_entry<std::pair<OpenImageIO::v3_1_0::ColorProcCacheKey, std::shared_ptr<OpenImageIO::v3_1_0::ColorProcessor>>, true>>>::_Vector_impl" }
%"struct.std::_Vector_base<tsl::detail_robin_hash::bucket_entry<std::pair<OpenImageIO::v3_1_0::ColorProcCacheKey, std::shared_ptr<OpenImageIO::v3_1_0::ColorProcessor>>, true>, std::allocator<tsl::detail_robin_hash::bucket_entry<std::pair<OpenImageIO::v3_1_0::ColorProcCacheKey, std::shared_ptr<OpenImageIO::v3_1_0::ColorProcessor>>, true>>>::_Vector_impl" = type { %"struct.std::_Vector_base<tsl::detail_robin_hash::bucket_entry<std::pair<OpenImageIO::v3_1_0::ColorProcCacheKey, std::shared_ptr<OpenImageIO::v3_1_0::ColorProcessor>>, true>, std::allocator<tsl::detail_robin_hash::bucket_entry<std::pair<OpenImageIO::v3_1_0::ColorProcCacheKey, std::shared_ptr<OpenImageIO::v3_1_0::ColorProcessor>>, true>>>::_Vector_impl_data" }
%"struct.std::_Vector_base<tsl::detail_robin_hash::bucket_entry<std::pair<OpenImageIO::v3_1_0::ColorProcCacheKey, std::shared_ptr<OpenImageIO::v3_1_0::ColorProcessor>>, true>, std::allocator<tsl::detail_robin_hash::bucket_entry<std::pair<OpenImageIO::v3_1_0::ColorProcCacheKey, std::shared_ptr<OpenImageIO::v3_1_0::ColorProcessor>>, true>>>::_Vector_impl_data" = type { ptr, ptr, ptr }
%"struct.std::atomic" = type { %"struct.std::__atomic_base" }
%"struct.std::__atomic_base" = type { i32 }

@_ZN11OpenImageIO6v3_1_0L12disable_ocioE = internal global i32 0, align 4

; Function Attrs: mustprogress nounwind uwtable
define linkonce_odr noundef nonnull align 8 dereferenceable(8) ptr @_ZNSt10_Head_baseILm0EPN11OpenImageIO6v3_1_011ColorConfig4ImplELb0EE7_M_headERKS5_(ptr noundef nonnull align 8 dereferenceable(8) %0) #6 comdat align 2 {
  %2 = alloca ptr, align 8
  store ptr %0, ptr %2, align 8, !tbaa !1154
  %3 = load ptr, ptr %2, align 8, !tbaa !1154
  %4 = getelementptr inbounds nuw %"struct.std::_Head_base.1", ptr %3, i32 0, i32 0
  ret ptr %4
}

; Function Attrs: mustprogress nounwind uwtable
define linkonce_odr noundef nonnull align 8 dereferenceable(8) ptr @_ZNSt11_Tuple_implILm0EJPN11OpenImageIO6v3_1_011ColorConfig4ImplESt14default_deleteIS3_EEE7_M_headERKS7_(ptr noundef nonnull align 8 dereferenceable(8) %0) #6 comdat align 2 {
  %2 = alloca ptr, align 8
  store ptr %0, ptr %2, align 8, !tbaa !1150
  %3 = load ptr, ptr %2, align 8, !tbaa !1150
  %4 = call noundef nonnull align 8 dereferenceable(8) ptr @_ZNSt10_Head_baseILm0EPN11OpenImageIO6v3_1_011ColorConfig4ImplELb0EE7_M_headERKS5_(ptr noundef nonnull align 8 dereferenceable(8) %3) #5
  ret ptr %4
}

; Function Attrs: mustprogress nounwind uwtable
define linkonce_odr noundef nonnull align 8 dereferenceable(8) ptr @_ZSt12__get_helperILm0EPN11OpenImageIO6v3_1_011ColorConfig4ImplEJSt14default_deleteIS3_EEERKT0_RKSt11_Tuple_implIXT_EJS7_DpT1_EE(ptr noundef nonnull align 8 dereferenceable(8) %0) #6 comdat {
  %2 = alloca ptr, align 8
  store ptr %0, ptr %2, align 8, !tbaa !1150
  %3 = load ptr, ptr %2, align 8, !tbaa !1150
  %4 = call noundef nonnull align 8 dereferenceable(8) ptr @_ZNSt11_Tuple_implILm0EJPN11OpenImageIO6v3_1_011ColorConfig4ImplESt14default_deleteIS3_EEE7_M_headERKS7_(ptr noundef nonnull align 8 dereferenceable(8) %3) #5
  ret ptr %4
}

; Function Attrs: mustprogress nounwind uwtable
define linkonce_odr noundef nonnull align 8 dereferenceable(8) ptr @_ZSt3getILm0EJPN11OpenImageIO6v3_1_011ColorConfig4ImplESt14default_deleteIS3_EEERKNSt13tuple_elementIXT_ESt5tupleIJDpT0_EEE4typeERKSB_(ptr noundef nonnull align 8 dereferenceable(8) %0) #6 comdat {
  %2 = alloca ptr, align 8
  store ptr %0, ptr %2, align 8, !tbaa !1148
  %3 = load ptr, ptr %2, align 8, !tbaa !1148
  %4 = call noundef nonnull align 8 dereferenceable(8) ptr @_ZSt12__get_helperILm0EPN11OpenImageIO6v3_1_011ColorConfig4ImplEJSt14default_deleteIS3_EEERKT0_RKSt11_Tuple_implIXT_EJS7_DpT1_EE(ptr noundef nonnull align 8 dereferenceable(8) %3) #5
  ret ptr %4
}

; Function Attrs: mustprogress nounwind uwtable
define linkonce_odr noundef ptr @_ZNKSt12__shared_ptrIKN16OpenColorIO_v2_46ConfigELN9__gnu_cxx12_Lock_policyE2EE3getEv(ptr noundef nonnull align 8 dereferenceable(16) %0) #6 comdat align 2 {
  %2 = alloca ptr, align 8
  store ptr %0, ptr %2, align 8, !tbaa !38
  %3 = load ptr, ptr %2, align 8
  %4 = getelementptr inbounds nuw %"class.std::__shared_ptr", ptr %3, i32 0, i32 0
  %5 = load ptr, ptr %4, align 8, !tbaa !40
  ret ptr %5
}

; Function Attrs: mustprogress nounwind uwtable
define linkonce_odr noundef ptr @_ZNKSt15__uniq_ptr_implIN11OpenImageIO6v3_1_011ColorConfig4ImplESt14default_deleteIS3_EE6_M_ptrEv(ptr noundef nonnull align 8 dereferenceable(8) %0) #6 comdat align 2 {
  %2 = alloca ptr, align 8
  store ptr %0, ptr %2, align 8, !tbaa !1146
  %3 = load ptr, ptr %2, align 8
  %4 = getelementptr inbounds nuw %"class.std::__uniq_ptr_impl", ptr %3, i32 0, i32 0
  %5 = call noundef nonnull align 8 dereferenceable(8) ptr @_ZSt3getILm0EJPN11OpenImageIO6v3_1_011ColorConfig4ImplESt14default_deleteIS3_EEERKNSt13tuple_elementIXT_ESt5tupleIJDpT0_EEE4typeERKSB_(ptr noundef nonnull align 8 dereferenceable(8) %4) #5
  %6 = load ptr, ptr %5, align 8, !tbaa !21
  ret ptr %6
}

; Function Attrs: mustprogress nounwind uwtable
define available_externally noundef ptr @_ZNKSt7__cxx1112basic_stringIcSt11char_traitsIcESaIcEE7_M_dataEv(ptr noundef nonnull align 8 dereferenceable(32) %0) #6 align 2 {
  %2 = alloca ptr, align 8
  store ptr %0, ptr %2, align 8, !tbaa !32
  %3 = load ptr, ptr %2, align 8
  %4 = getelementptr inbounds nuw %"class.std::__cxx11::basic_string", ptr %3, i32 0, i32 0
  %5 = getelementptr inbounds nuw %"struct.std::__cxx11::basic_string<char>::_Alloc_hider", ptr %4, i32 0, i32 0
  %6 = load ptr, ptr %5, align 8, !tbaa !420
  ret ptr %6
}

; Function Attrs: mustprogress nounwind uwtable
define linkonce_odr noundef ptr @_ZNKSt19__shared_ptr_accessIKN16OpenColorIO_v2_46ConfigELN9__gnu_cxx12_Lock_policyE2ELb0ELb0EE6_M_getEv(ptr noundef nonnull align 1 dereferenceable(1) %0) #6 comdat align 2 {
  %2 = alloca ptr, align 8
  store ptr %0, ptr %2, align 8, !tbaa !45
  %3 = load ptr, ptr %2, align 8
  %4 = call noundef ptr @_ZNKSt12__shared_ptrIKN16OpenColorIO_v2_46ConfigELN9__gnu_cxx12_Lock_policyE2EE3getEv(ptr noundef nonnull align 8 dereferenceable(16) %3) #5
  ret ptr %4
}

; Function Attrs: mustprogress nounwind uwtable
define linkonce_odr noundef ptr @_ZNKSt10unique_ptrIN11OpenImageIO6v3_1_011ColorConfig4ImplESt14default_deleteIS3_EE3getEv(ptr noundef nonnull align 8 dereferenceable(8) %0) #6 comdat align 2 {
  %2 = alloca ptr, align 8
  store ptr %0, ptr %2, align 8, !tbaa !181
  %3 = load ptr, ptr %2, align 8
  %4 = getelementptr inbounds nuw %"class.std::unique_ptr", ptr %3, i32 0, i32 0
  %5 = call noundef ptr @_ZNKSt15__uniq_ptr_implIN11OpenImageIO6v3_1_011ColorConfig4ImplESt14default_deleteIS3_EE6_M_ptrEv(ptr noundef nonnull align 8 dereferenceable(8) %4) #5
  ret ptr %5
}

; Function Attrs: mustprogress nounwind uwtable
define available_externally noundef ptr @_ZNKSt7__cxx1112basic_stringIcSt11char_traitsIcESaIcEE5c_strEv(ptr noundef nonnull align 8 dereferenceable(32) %0) #6 align 2 {
  %2 = alloca ptr, align 8
  store ptr %0, ptr %2, align 8, !tbaa !32
  %3 = load ptr, ptr %2, align 8
  %4 = call noundef ptr @_ZNKSt7__cxx1112basic_stringIcSt11char_traitsIcESaIcEE7_M_dataEv(ptr noundef nonnull align 8 dereferenceable(32) %3)
  ret ptr %4
}

; Function Attrs: mustprogress nounwind uwtable
define linkonce_odr noundef ptr @_ZNKSt19__shared_ptr_accessIKN16OpenColorIO_v2_46ConfigELN9__gnu_cxx12_Lock_policyE2ELb0ELb0EEptEv(ptr noundef nonnull align 1 dereferenceable(1) %0) #6 comdat align 2 {
  %2 = alloca ptr, align 8
  store ptr %0, ptr %2, align 8, !tbaa !45
  %3 = load ptr, ptr %2, align 8
  %4 = call noundef ptr @_ZNKSt19__shared_ptr_accessIKN16OpenColorIO_v2_46ConfigELN9__gnu_cxx12_Lock_policyE2ELb0ELb0EE6_M_getEv(ptr noundef nonnull align 1 dereferenceable(1) %3) #5
  ret ptr %4
}

; Function Attrs: mustprogress nounwind uwtable
define linkonce_odr noundef zeroext i1 @_ZNKSt12__shared_ptrIKN16OpenColorIO_v2_46ConfigELN9__gnu_cxx12_Lock_policyE2EEcvbEv(ptr noundef nonnull align 8 dereferenceable(16) %0) #6 comdat align 2 {
  %2 = alloca ptr, align 8
  store ptr %0, ptr %2, align 8, !tbaa !38
  %3 = load ptr, ptr %2, align 8
  %4 = getelementptr inbounds nuw %"class.std::__shared_ptr", ptr %3, i32 0, i32 0
  %5 = load ptr, ptr %4, align 8, !tbaa !40
  %6 = icmp ne ptr %5, null
  ret i1 %6
}

; Function Attrs: mustprogress nounwind uwtable
define linkonce_odr noundef ptr @_ZNK11OpenImageIO6v3_1_011ColorConfig7getImplEv(ptr noundef nonnull align 8 dereferenceable(8) %0) #6 comdat align 2 {
  %2 = alloca ptr, align 8
  store ptr %0, ptr %2, align 8, !tbaa !121
  %3 = load ptr, ptr %2, align 8
  %4 = getelementptr inbounds nuw %"class.OpenImageIO::v3_1_0::ColorConfig", ptr %3, i32 0, i32 0
  %5 = call noundef ptr @_ZNKSt10unique_ptrIN11OpenImageIO6v3_1_011ColorConfig4ImplESt14default_deleteIS3_EE3getEv(ptr noundef nonnull align 8 dereferenceable(8) %4) #5
  ret ptr %5
}

; Function Attrs: mustprogress uwtable
define noundef ptr @_ZNK11OpenImageIO6v3_1_011ColorConfig28getDisplayViewColorSpaceNameERKNSt7__cxx1112basic_stringIcSt11char_traitsIcESaIcEEES9_(ptr noundef nonnull align 8 dereferenceable(8) %0, ptr noundef nonnull align 8 dereferenceable(32) %1, ptr noundef nonnull align 8 dereferenceable(32) %2) #7 align 2 {
  %4 = alloca ptr, align 8
  %5 = alloca ptr, align 8
  %6 = alloca ptr, align 8
  %7 = alloca ptr, align 8
  store ptr %0, ptr %5, align 8, !tbaa !121
  store ptr %1, ptr %6, align 8, !tbaa !32
  store ptr %2, ptr %7, align 8, !tbaa !32
  %8 = load ptr, ptr %5, align 8
  %9 = call noundef ptr @_ZNK11OpenImageIO6v3_1_011ColorConfig7getImplEv(ptr noundef nonnull align 8 dereferenceable(8) %8)
  %10 = getelementptr inbounds nuw %"class.OpenImageIO::v3_1_0::ColorConfig::Impl", ptr %9, i32 0, i32 0
  %11 = call noundef zeroext i1 @_ZNKSt12__shared_ptrIKN16OpenColorIO_v2_46ConfigELN9__gnu_cxx12_Lock_policyE2EEcvbEv(ptr noundef nonnull align 8 dereferenceable(16) %10) #5
  br i1 %11, label %12, label %24

12:                                               ; preds = %3
  %13 = load i32, ptr @_ZN11OpenImageIO6v3_1_0L12disable_ocioE, align 4, !tbaa !18
  %14 = icmp ne i32 %13, 0
  br i1 %14, label %24, label %15

15:                                               ; preds = %12
  %16 = call noundef ptr @_ZNK11OpenImageIO6v3_1_011ColorConfig7getImplEv(ptr noundef nonnull align 8 dereferenceable(8) %8)
  %17 = getelementptr inbounds nuw %"class.OpenImageIO::v3_1_0::ColorConfig::Impl", ptr %16, i32 0, i32 0
  %18 = call noundef ptr @_ZNKSt19__shared_ptr_accessIKN16OpenColorIO_v2_46ConfigELN9__gnu_cxx12_Lock_policyE2ELb0ELb0EEptEv(ptr noundef nonnull align 1 dereferenceable(1) %17) #5
  %19 = load ptr, ptr %6, align 8, !tbaa !32
  %20 = call noundef ptr @_ZNKSt7__cxx1112basic_stringIcSt11char_traitsIcESaIcEE5c_strEv(ptr noundef nonnull align 8 dereferenceable(32) %19) #5
  %21 = load ptr, ptr %7, align 8, !tbaa !32
  %22 = call noundef ptr @_ZNKSt7__cxx1112basic_stringIcSt11char_traitsIcESaIcEE5c_strEv(ptr noundef nonnull align 8 dereferenceable(32) %21) #5
  %23 = call noundef ptr @_ZNK16OpenColorIO_v2_46Config28getDisplayViewColorSpaceNameEPKcS2_(ptr noundef nonnull align 8 dereferenceable(8) %18, ptr noundef %20, ptr noundef %22)
  store ptr %23, ptr %4, align 8
  br label %25

24:                                               ; preds = %12, %3
  store ptr null, ptr %4, align 8
  br label %25

25:                                               ; preds = %24, %15
  %26 = load ptr, ptr %4, align 8
  ret ptr %26
}