; Function Attrs: mustprogress uwtable
define noundef ptr @_ZNK11OpenImageIO6v3_1_011ColorConfig28getDisplayViewColorSpaceNameERKNSt7__cxx1112basic_stringIcSt11char_traitsIcESaIcEEES9_(ptr noundef nonnull readonly align 8 captures(none) dereferenceable(8) %0, ptr noundef nonnull readonly align 8 captures(none) dereferenceable(32) %1, ptr noundef nonnull readonly align 8 captures(none) dereferenceable(32) %2) local_unnamed_addr #5 align 2 {
  %4 = load ptr, ptr %0, align 8, !tbaa !140
  %5 = load ptr, ptr %4, align 8, !tbaa !30
  %6 = icmp ne ptr %5, null
  %7 = load i32, ptr @_ZN11OpenImageIO6v3_1_0L12disable_ocioE, align 4
  %8 = icmp eq i32 %7, 0
  %or.cond.not = select i1 %6, i1 %8, i1 false
  br i1 %or.cond.not, label %9, label %13

9:                                                ; preds = %3
  %10 = load ptr, ptr %1, align 8, !tbaa !18
  %11 = load ptr, ptr %2, align 8, !tbaa !18
  %12 = tail call noundef ptr @_ZNK16OpenColorIO_v2_46Config28getDisplayViewColorSpaceNameEPKcS2_(ptr noundef nonnull align 8 dereferenceable(8) %5, ptr noundef %10, ptr noundef %11)
  br label %13

13:                                               ; preds = %3, %9
  %.0 = phi ptr [ %12, %9 ], [ null, %3 ]
  ret ptr %.0
}